target datalayout = "e-m:e-p270:32:32-p271:32:32-p272:64:64-i64:64-i128:128-f80:128-n8:16:32:64-S128"
target triple = "x86_64-pc-linux-gnu"

%struct.nk_rect = type { float, float, float, float }
%struct.nk_vec2 = type { float, float }
%struct.nk_color = type { i8, i8, i8, i8 }
%struct.nk_allocator = type { %union.nk_handle, ptr, ptr }
%union.nk_handle = type { ptr }
%struct.nk_buffer = type { [2 x %struct.nk_buffer_marker], %struct.nk_allocator, i32, %struct.nk_memory, float, i64, i64, i64, i64 }
%struct.nk_buffer_marker = type { i32, i64 }
%struct.nk_memory = type { ptr, i64 }
%struct.nk_str = type { %struct.nk_buffer, i32 }
%struct.nk_command_buffer = type { ptr, %struct.nk_rect, i32, %union.nk_handle, i64, i64, i64 }
%struct.nk_image = type { %union.nk_handle, i16, i16, [4 x i16] }
%struct.nk_nine_slice = type { %struct.nk_image, i16, i16, i16, i16 }
%struct.nk_draw_list = type { %struct.nk_rect, [12 x %struct.nk_vec2], %struct.nk_convert_config, ptr, ptr, ptr, i32, i32, i32, i64, i32, i32, i32, i32 }
%struct.nk_convert_config = type { float, i32, i32, i32, i32, i32, %struct.nk_draw_null_texture, ptr, i64, i64 }
%struct.nk_draw_null_texture = type { %union.nk_handle, %struct.nk_vec2 }
%struct.nk_context = type { %struct.nk_input, %struct.nk_style, %struct.nk_buffer, %struct.nk_clipboard, i32, i32, %struct.nk_configuration_stacks, float, %struct.nk_draw_list, %struct.nk_text_edit, %struct.nk_command_buffer, i32, i32, %struct.nk_pool, ptr, ptr, ptr, ptr, ptr, i32, i32 }
%struct.nk_input = type { %struct.nk_keyboard, %struct.nk_mouse }
%struct.nk_keyboard = type { [30 x %struct.nk_key], [16 x i8], i32 }
%struct.nk_key = type { i32, i32 }
%struct.nk_mouse = type { [4 x %struct.nk_mouse_button], %struct.nk_vec2, %struct.nk_vec2, %struct.nk_vec2, %struct.nk_vec2, i8, i8, i8 }
%struct.nk_mouse_button = type { i32, i32, %struct.nk_vec2 }
%struct.nk_style = type { ptr, [7 x ptr], ptr, ptr, i32, %struct.nk_style_text, %struct.nk_style_button, %struct.nk_style_button, %struct.nk_style_button, %struct.nk_style_toggle, %struct.nk_style_toggle, %struct.nk_style_selectable, %struct.nk_style_slider, %struct.nk_style_knob, %struct.nk_style_progress, %struct.nk_style_property, %struct.nk_style_edit, %struct.nk_style_chart, %struct.nk_style_scrollbar, %struct.nk_style_scrollbar, %struct.nk_style_tab, %struct.nk_style_combo, %struct.nk_style_window }
%struct.nk_style_text = type { %struct.nk_color, %struct.nk_vec2, float, float }
%struct.nk_style_button = type { %struct.nk_style_item, %struct.nk_style_item, %struct.nk_style_item, %struct.nk_color, float, %struct.nk_color, %struct.nk_color, %struct.nk_color, %struct.nk_color, i32, float, float, float, %struct.nk_vec2, %struct.nk_vec2, %struct.nk_vec2, float, %union.nk_handle, ptr, ptr }
%struct.nk_style_item = type { i32, %union.nk_style_item_data }
%union.nk_style_item_data = type { %struct.nk_nine_slice }
%struct.nk_style_toggle = type { %struct.nk_style_item, %struct.nk_style_item, %struct.nk_style_item, %struct.nk_color, %struct.nk_style_item, %struct.nk_style_item, %struct.nk_color, %struct.nk_color, %struct.nk_color, %struct.nk_color, i32, %struct.nk_vec2, %struct.nk_vec2, float, float, float, float, %union.nk_handle, ptr, ptr }
%struct.nk_style_selectable = type { %struct.nk_style_item, %struct.nk_style_item, %struct.nk_style_item, %struct.nk_style_item, %struct.nk_style_item, %struct.nk_style_item, %struct.nk_color, %struct.nk_color, %struct.nk_color, %struct.nk_color, %struct.nk_color, %struct.nk_color, %struct.nk_color, i32, float, %struct.nk_vec2, %struct.nk_vec2, %struct.nk_vec2, float, float, %union.nk_handle, ptr, ptr }
%struct.nk_style_slider = type { %struct.nk_style_item, %struct.nk_style_item, %struct.nk_style_item, %struct.nk_color, %struct.nk_color, %struct.nk_color, %struct.nk_color, %struct.nk_color, %struct.nk_style_item, %struct.nk_style_item, %struct.nk_style_item, float, float, float, %struct.nk_vec2, %struct.nk_vec2, %struct.nk_vec2, float, float, i32, %struct.nk_style_button, %struct.nk_style_button, i32, i32, %union.nk_handle, ptr, ptr }
%struct.nk_style_knob = type { %struct.nk_style_item, %struct.nk_style_item, %struct.nk_style_item, %struct.nk_color, %struct.nk_color, %struct.nk_color, %struct.nk_color, %struct.nk_color, %struct.nk_color, %struct.nk_color, %struct.nk_color, float, float, %struct.nk_vec2, %struct.nk_vec2, float, float, float, %union.nk_handle, ptr, ptr }
%struct.nk_style_progress = type { %struct.nk_style_item, %struct.nk_style_item, %struct.nk_style_item, %struct.nk_color, %struct.nk_style_item, %struct.nk_style_item, %struct.nk_style_item, %struct.nk_color, float, float, float, float, %struct.nk_vec2, float, float, %union.nk_handle, ptr, ptr }
%struct.nk_style_property = type { %struct.nk_style_item, %struct.nk_style_item, %struct.nk_style_item, %struct.nk_color, %struct.nk_color, %struct.nk_color, %struct.nk_color, i32, i32, float, float, %struct.nk_vec2, float, float, %struct.nk_style_edit, %struct.nk_style_button, %struct.nk_style_button, %union.nk_handle, ptr, ptr }
%struct.nk_style_edit = type { %struct.nk_style_item, %struct.nk_style_item, %struct.nk_style_item, %struct.nk_color, %struct.nk_style_scrollbar, %struct.nk_color, %struct.nk_color, %struct.nk_color, %struct.nk_color, %struct.nk_color, %struct.nk_color, %struct.nk_color, %struct.nk_color, %struct.nk_color, %struct.nk_color, %struct.nk_color, float, float, float, %struct.nk_vec2, %struct.nk_vec2, float, float, float }
%struct.nk_style_chart = type { %struct.nk_style_item, %struct.nk_color, %struct.nk_color, %struct.nk_color, float, float, %struct.nk_vec2, float, float, i32 }
%struct.nk_style_scrollbar = type { %struct.nk_style_item, %struct.nk_style_item, %struct.nk_style_item, %struct.nk_color, %struct.nk_style_item, %struct.nk_style_item, %struct.nk_style_item, %struct.nk_color, float, float, float, float, %struct.nk_vec2, float, float, i32, %struct.nk_style_button, %struct.nk_style_button, i32, i32, %union.nk_handle, ptr, ptr }
%struct.nk_style_tab = type { %struct.nk_style_item, %struct.nk_color, %struct.nk_color, %struct.nk_style_button, %struct.nk_style_button, %struct.nk_style_button, %struct.nk_style_button, i32, i32, float, float, float, %struct.nk_vec2, %struct.nk_vec2, float, float }
%struct.nk_style_combo = type { %struct.nk_style_item, %struct.nk_style_item, %struct.nk_style_item, %struct.nk_color, %struct.nk_color, %struct.nk_color, %struct.nk_color, %struct.nk_color, %struct.nk_color, %struct.nk_color, %struct.nk_style_button, i32, i32, i32, float, float, %struct.nk_vec2, %struct.nk_vec2, %struct.nk_vec2, float, float }
%struct.nk_style_window = type { %struct.nk_style_window_header, %struct.nk_style_item, %struct.nk_color, %struct.nk_color, %struct.nk_color, %struct.nk_color, %struct.nk_color, %struct.nk_color, %struct.nk_color, %struct.nk_color, %struct.nk_style_item, float, float, float, float, float, float, float, float, float, %struct.nk_vec2, %struct.nk_vec2, %struct.nk_vec2, %struct.nk_vec2, %struct.nk_vec2, %struct.nk_vec2, %struct.nk_vec2, %struct.nk_vec2, %struct.nk_vec2, %struct.nk_vec2 }
%struct.nk_style_window_header = type { %struct.nk_style_item, %struct.nk_style_item, %struct.nk_style_item, %struct.nk_style_button, %struct.nk_style_button, i32, i32, i32, %struct.nk_color, %struct.nk_color, %struct.nk_color, i32, %struct.nk_vec2, %struct.nk_vec2, %struct.nk_vec2 }
%struct.nk_clipboard = type { %union.nk_handle, ptr, ptr }
%struct.nk_configuration_stacks = type { %struct.nk_config_stack_style_item, %struct.nk_config_stack_float, %struct.nk_config_stack_vec2, %struct.nk_config_stack_flags, %struct.nk_config_stack_color, %struct.nk_config_stack_user_font, %struct.nk_config_stack_button_behavior }
%struct.nk_config_stack_style_item = type { i32, [16 x %struct.nk_config_stack_style_item_element] }
%struct.nk_config_stack_style_item_element = type { ptr, %struct.nk_style_item }
%struct.nk_config_stack_float = type { i32, [32 x %struct.nk_config_stack_float_element] }
%struct.nk_config_stack_float_element = type { ptr, float }
%struct.nk_config_stack_vec2 = type { i32, [16 x %struct.nk_config_stack_vec2_element] }
%struct.nk_config_stack_vec2_element = type { ptr, %struct.nk_vec2 }
%struct.nk_config_stack_flags = type { i32, [32 x %struct.nk_config_stack_flags_element] }
%struct.nk_config_stack_flags_element = type { ptr, i32 }
%struct.nk_config_stack_color = type { i32, [32 x %struct.nk_config_stack_color_element] }
%struct.nk_config_stack_color_element = type { ptr, %struct.nk_color }
%struct.nk_config_stack_user_font = type { i32, [8 x %struct.nk_config_stack_user_font_element] }
%struct.nk_config_stack_user_font_element = type { ptr, ptr }
%struct.nk_config_stack_button_behavior = type { i32, [8 x %struct.nk_config_stack_button_behavior_element] }
%struct.nk_config_stack_button_behavior_element = type { ptr, i32 }
%struct.nk_text_edit = type { %struct.nk_clipboard, %struct.nk_str, ptr, %struct.nk_vec2, i32, i32, i32, i8, i8, i8, i8, i8, i8, i8, float, %struct.nk_text_undo_state }
%struct.nk_text_undo_state = type { [99 x %struct.nk_text_undo_record], [999 x i32], i16, i16, i16, i16 }
%struct.nk_text_undo_record = type { i32, i16, i16, i16 }
%struct.nk_pool = type { %struct.nk_allocator, i32, i32, ptr, ptr, i32, i64, i64 }
%struct.nk_window = type { i32, i32, [64 x i8], i32, %struct.nk_rect, %struct.nk_scroll, %struct.nk_command_buffer, ptr, float, %struct.nk_property_state, %struct.nk_popup_state, %struct.nk_edit_state, i32, i32, ptr, i32, ptr, ptr, ptr }
%struct.nk_scroll = type { i32, i32 }
%struct.nk_property_state = type { i32, i32, [64 x i8], i32, i32, i32, i32, i32, i32, i32, i32 }
%struct.nk_popup_state = type { ptr, i32, %struct.nk_popup_buffer, i32, i32, i32, i32, i32, i32, %struct.nk_rect }
%struct.nk_popup_buffer = type { i64, i64, i64, i64, i32 }
%struct.nk_edit_state = type { i32, i32, i32, i32, i32, i32, i32, i32, %struct.nk_scroll, i8, i8 }
%struct.nk_panel = type { i32, i32, %struct.nk_rect, ptr, ptr, float, float, float, float, float, float, i32, %struct.nk_rect, %struct.nk_menu_state, %struct.nk_row_layout, %struct.nk_chart, ptr, ptr }
%struct.nk_menu_state = type { float, float, float, float, %struct.nk_scroll }
%struct.nk_row_layout = type { i32, i32, float, float, i32, ptr, float, float, float, float, %struct.nk_rect, i32, [16 x float] }
%struct.nk_chart = type { i32, float, float, float, float, [4 x %struct.nk_chart_slot] }
%struct.nk_chart_slot = type { i32, %struct.nk_color, %struct.nk_color, float, float, float, i32, %struct.nk_vec2, i32, i32 }

; Function Attrs: nounwind uwtable
define void @nk_layout_row_end(ptr noundef %0) #0 {
  %2 = alloca ptr, align 8
  %3 = alloca ptr, align 8
  %4 = alloca ptr, align 8
  %5 = alloca i32, align 4
  store ptr %0, ptr %2, align 8, !tbaa !372
  call void @llvm.lifetime.start.p0(i64 8, ptr %3) #10
  call void @llvm.lifetime.start.p0(i64 8, ptr %4) #10
  %6 = load ptr, ptr %2, align 8, !tbaa !372
  %7 = icmp ne ptr %6, null
  br i1 %7, label %8, label %20

8:                                                ; preds = %1
  %9 = load ptr, ptr %2, align 8, !tbaa !372
  %10 = getelementptr inbounds nuw %struct.nk_context, ptr %9, i32 0, i32 17
  %11 = load ptr, ptr %10, align 8, !tbaa !955
  %12 = icmp ne ptr %11, null
  br i1 %12, label %13, label %20

13:                                               ; preds = %8
  %14 = load ptr, ptr %2, align 8, !tbaa !372
  %15 = getelementptr inbounds nuw %struct.nk_context, ptr %14, i32 0, i32 17
  %16 = load ptr, ptr %15, align 8, !tbaa !955
  %17 = getelementptr inbounds nuw %struct.nk_window, ptr %16, i32 0, i32 7
  %18 = load ptr, ptr %17, align 8, !tbaa !956
  %19 = icmp ne ptr %18, null
  br i1 %19, label %21, label %20

20:                                               ; preds = %13, %8, %1
  store i32 1, ptr %5, align 4
  br label %47

21:                                               ; preds = %13
  %22 = load ptr, ptr %2, align 8, !tbaa !372
  %23 = getelementptr inbounds nuw %struct.nk_context, ptr %22, i32 0, i32 17
  %24 = load ptr, ptr %23, align 8, !tbaa !955
  store ptr %24, ptr %3, align 8, !tbaa !424
  %25 = load ptr, ptr %3, align 8, !tbaa !424
  %26 = getelementptr inbounds nuw %struct.nk_window, ptr %25, i32 0, i32 7
  %27 = load ptr, ptr %26, align 8, !tbaa !956
  store ptr %27, ptr %4, align 8, !tbaa !957
  %28 = load ptr, ptr %4, align 8, !tbaa !957
  %29 = getelementptr inbounds nuw %struct.nk_panel, ptr %28, i32 0, i32 14
  %30 = getelementptr inbounds nuw %struct.nk_row_layout, ptr %29, i32 0, i32 0
  %31 = load i32, ptr %30, align 8, !tbaa !1168
  %32 = icmp ne i32 %31, 5
  br i1 %32, label %33, label %40

33:                                               ; preds = %21
  %34 = load ptr, ptr %4, align 8, !tbaa !957
  %35 = getelementptr inbounds nuw %struct.nk_panel, ptr %34, i32 0, i32 14
  %36 = getelementptr inbounds nuw %struct.nk_row_layout, ptr %35, i32 0, i32 0
  %37 = load i32, ptr %36, align 8, !tbaa !1168
  %38 = icmp ne i32 %37, 1
  br i1 %38, label %39, label %40

39:                                               ; preds = %33
  store i32 1, ptr %5, align 4
  br label %47

40:                                               ; preds = %33, %21
  %41 = load ptr, ptr %4, align 8, !tbaa !957
  %42 = getelementptr inbounds nuw %struct.nk_panel, ptr %41, i32 0, i32 14
  %43 = getelementptr inbounds nuw %struct.nk_row_layout, ptr %42, i32 0, i32 6
  store float 0.000000e+00, ptr %43, align 8, !tbaa !1100
  %44 = load ptr, ptr %4, align 8, !tbaa !957
  %45 = getelementptr inbounds nuw %struct.nk_panel, ptr %44, i32 0, i32 14
  %46 = getelementptr inbounds nuw %struct.nk_row_layout, ptr %45, i32 0, i32 8
  store float 0.000000e+00, ptr %46, align 8, !tbaa !1170
  store i32 0, ptr %5, align 4
  br label %47

47:                                               ; preds = %40, %39, %20
  call void @llvm.lifetime.end.p0(i64 8, ptr %4) #10
  call void @llvm.lifetime.end.p0(i64 8, ptr %3) #10
  %48 = load i32, ptr %5, align 4
  switch i32 %48, label %50 [
    i32 0, label %49
    i32 1, label %49
  ]

49:                                               ; preds = %47, %47
  ret void

50:                                               ; preds = %47
  unreachable
}