; Function Attrs: mustprogress nofree norecurse nosync nounwind willreturn memory(readwrite, inaccessiblemem: none) uwtable
define void @nk_layout_row_end(ptr noundef readonly captures(address_is_null) %0) local_unnamed_addr #23 {
  %.not = icmp eq ptr %0, null
  br i1 %.not, label %14, label %2

2:                                                ; preds = %1
  %3 = getelementptr inbounds nuw i8, ptr %0, i64 18520
  %4 = load ptr, ptr %3, align 8, !tbaa !824
  %.not12 = icmp eq ptr %4, null
  br i1 %.not12, label %14, label %5

5:                                                ; preds = %2
  %6 = getelementptr inbounds nuw i8, ptr %4, i64 168
  %7 = load ptr, ptr %6, align 8, !tbaa !825
  %.not13 = icmp eq ptr %7, null
  br i1 %.not13, label %14, label %8

8:                                                ; preds = %5
  %9 = getelementptr inbounds nuw i8, ptr %7, i64 112
  %10 = load i32, ptr %9, align 8, !tbaa !1001
  switch i32 %10, label %14 [
    i32 5, label %11
    i32 1, label %11
  ]

11:                                               ; preds = %8, %8
  %12 = getelementptr inbounds nuw i8, ptr %7, i64 144
  store float 0.000000e+00, ptr %12, align 8, !tbaa !923
  %13 = getelementptr inbounds nuw i8, ptr %7, i64 152
  store float 0.000000e+00, ptr %13, align 8, !tbaa !1000
  br label %14

14:                                               ; preds = %8, %1, %2, %5, %11
  ret void
}